; Function Attrs: mustprogress uwtable
define void @_ZN7openvdb5v11_02io22clearStreamMetadataPtrERSt8ios_base(ptr noalias sret(%"class.std::shared_ptr.24") align 8 %agg.result, ptr noundef nonnull align 8 dereferenceable(216) %strm) local_unnamed_addr #6 personality ptr @__gxx_personality_v0 {
entry:
  tail call void @_ZN7openvdb5v11_02io20getStreamMetadataPtrERSt8ios_base(ptr sret(%"class.std::shared_ptr.24") align 8 %agg.result, ptr noundef nonnull align 8 dereferenceable(216) %strm)
  %0 = load atomic i8, ptr @_ZGVZN7openvdb5v11_02io12_GLOBAL__N_113GetSteamStateEvE12sStreamState acquire, align 8
  %guard.uninitialized.i = icmp eq i8 %0, 0
  br i1 %guard.uninitialized.i, label %init.check.i, label %invoke.cont, !prof !8

init.check.i:                                     ; preds = %entry
  %1 = tail call i32 @__cxa_guard_acquire(ptr nonnull @_ZGVZN7openvdb5v11_02io12_GLOBAL__N_113GetSteamStateEvE12sStreamState) #25
  %tobool.not.i = icmp eq i32 %1, 0
  br i1 %tobool.not.i, label %invoke.cont, label %init.i

init.i:                                           ; preds = %init.check.i
  invoke fastcc void @_ZN7openvdb5v11_02io12_GLOBAL__N_111StreamStateC2Ev()
          to label %invoke.cont.i unwind label %lpad.i

invoke.cont.i:                                    ; preds = %init.i
  %2 = tail call i32 @__cxa_atexit(ptr nonnull @_ZN7openvdb5v11_02io12_GLOBAL__N_111StreamStateD2Ev, ptr nonnull @_ZZN7openvdb5v11_02io12_GLOBAL__N_113GetSteamStateEvE12sStreamState, ptr nonnull @__dso_handle) #25
  tail call void @__cxa_guard_release(ptr nonnull @_ZGVZN7openvdb5v11_02io12_GLOBAL__N_113GetSteamStateEvE12sStreamState) #25
  br label %invoke.cont

lpad.i:                                           ; preds = %init.i
  %3 = landingpad { ptr, i32 }
          cleanup
  tail call void @__cxa_guard_abort(ptr nonnull @_ZGVZN7openvdb5v11_02io12_GLOBAL__N_113GetSteamStateEvE12sStreamState) #25
  br label %lpad.body

invoke.cont:                                      ; preds = %invoke.cont.i, %init.check.i, %entry
  %4 = load i32, ptr getelementptr inbounds (%"struct.openvdb::v11_0::io::(anonymous namespace)::StreamState", ptr @_ZZN7openvdb5v11_02io12_GLOBAL__N_113GetSteamStateEvE12sStreamState, i64 0, i32 10), align 4
  %_M_word_size.i = getelementptr inbounds i8, ptr %strm, i64 192
  %5 = load i32, ptr %_M_word_size.i, align 8
  %cmp.i = icmp ugt i32 %5, %4
  br i1 %cmp.i, label %cond.true.i, label %cond.false.i

cond.true.i:                                      ; preds = %invoke.cont
  %_M_word.i = getelementptr inbounds i8, ptr %strm, i64 200
  %6 = load ptr, ptr %_M_word.i, align 8
  %idxprom.i = sext i32 %4 to i64
  %arrayidx.i = getelementptr inbounds %"struct.std::ios_base::_Words", ptr %6, i64 %idxprom.i
  br label %invoke.cont1

cond.false.i:                                     ; preds = %invoke.cont
  %call.i2 = invoke noundef nonnull align 8 dereferenceable(16) ptr @_ZNSt8ios_base13_M_grow_wordsEib(ptr noundef nonnull align 8 dereferenceable(216) %strm, i32 noundef %4, i1 noundef zeroext false)
          to label %invoke.cont1 unwind label %lpad

invoke.cont1:                                     ; preds = %cond.true.i, %cond.false.i
  %cond-lvalue.i = phi ptr [ %arrayidx.i, %cond.true.i ], [ %call.i2, %cond.false.i ]
  store ptr null, ptr %cond-lvalue.i, align 8
  ret void

lpad:                                             ; preds = %cond.false.i
  %7 = landingpad { ptr, i32 }
          cleanup
  br label %lpad.body

lpad.body:                                        ; preds = %lpad.i, %lpad
  %eh.lpad-body = phi { ptr, i32 } [ %7, %lpad ], [ %3, %lpad.i ]
  tail call void @_ZNSt10shared_ptrIN7openvdb5v11_02io14StreamMetadataEED2Ev(ptr noundef nonnull align 8 dereferenceable(16) %agg.result) #25
  resume { ptr, i32 } %eh.lpad-body
}